target datalayout = "e-m:e-p270:32:32-p271:32:32-p272:64:64-i64:64-i128:128-f80:128-n8:16:32:64-S128"
target triple = "x86_64-pc-linux-gnu"

%struct.If_Par_t_ = type { i32, i32, i32, i32, i32, i32, float, float, i32, i32, i32, i32, i32, i32, i32, i32, i32, i32, i32, i32, i32, i32, i32, i32, i32, i32, i32, i32, i32, i32, i32, i32, i32, i32, i32, i32, i32, i32, i32, i32, i32, i32, i32, i32, i32, i32, i32, i32, i32, i32, ptr, i32, float, i32, i32, i32, i32, i32, i32, i32, i32, i32, i32, i32, i32, i32, i32, float, float, float, ptr, ptr, ptr, ptr, ptr, ptr, ptr, ptr, ptr }
%struct.Gia_Man_t_ = type { ptr, ptr, i32, i32, i32, i32, ptr, ptr, i32, i32, i32, ptr, ptr, %struct.Vec_Int_t_, %struct.Vec_Int_t_, i32, i32, i32, %struct.Vec_Int_t_, ptr, ptr, ptr, i32, i32, i32, i32, ptr, ptr, ptr, ptr, ptr, i32, i32, ptr, i32, ptr, ptr, ptr, ptr, ptr, ptr, ptr, ptr, ptr, ptr, ptr, ptr, ptr, ptr, ptr, ptr, ptr, ptr, %struct.Vec_Int_t_, %struct.Vec_Int_t_, ptr, ptr, ptr, ptr, ptr, ptr, ptr, ptr, ptr, ptr, ptr, ptr, ptr, ptr, ptr, ptr, ptr, ptr, ptr, ptr, ptr, i32, float, float, ptr, ptr, i32, ptr, ptr, ptr, ptr, ptr, ptr, ptr, ptr, ptr, ptr, ptr, ptr, ptr, ptr, ptr, i64, i64, ptr, ptr, i32, i32, i32, i32, i32, i32, i32, i32, i32, i32, i32, i32, ptr, ptr, ptr, ptr, ptr, ptr, ptr, ptr, i32, i32, i32, ptr, i32, i32, ptr, ptr, ptr, ptr, ptr, ptr, i32, i32, ptr, %struct.Vec_Int_t_, %struct.Vec_Int_t_, %struct.Vec_Int_t_, ptr, ptr, ptr, i32, i32, i32, i32, ptr, ptr, ptr, ptr, ptr }
%struct.Vec_Int_t_ = type { i32, i32, ptr }

; Function Attrs: nounwind uwtable
define ptr @Gia_ManPerformMapping(ptr noundef %0, ptr noundef %1) #0 {
  %3 = alloca ptr, align 8
  %4 = alloca ptr, align 8
  %5 = alloca ptr, align 8
  %6 = alloca ptr, align 8
  %7 = alloca i32, align 4
  store ptr %0, ptr %4, align 8, !tbaa !40
  store ptr %1, ptr %5, align 8, !tbaa !3
  call void @llvm.lifetime.start.p0(i64 8, ptr %6) #14
  %8 = load ptr, ptr %4, align 8, !tbaa !40
  %9 = getelementptr inbounds nuw %struct.Gia_Man_t_, ptr %8, i32 0, i32 95
  %10 = load ptr, ptr %9, align 8, !tbaa !77
  %11 = icmp ne ptr %10, null
  br i1 %11, label %12, label %55

12:                                               ; preds = %2
  %13 = load ptr, ptr %4, align 8, !tbaa !40
  %14 = getelementptr inbounds nuw %struct.Gia_Man_t_, ptr %13, i32 0, i32 95
  %15 = load ptr, ptr %14, align 8, !tbaa !77
  %16 = call i32 @Tim_ManBoxNum(ptr noundef %15)
  %17 = icmp ne i32 %16, 0
  br i1 %17, label %18, label %55

18:                                               ; preds = %12
  %19 = load ptr, ptr %4, align 8, !tbaa !40
  %20 = call i32 @Gia_ManIsNormalized(ptr noundef %19)
  %21 = icmp ne i32 %20, 0
  br i1 %21, label %22, label %55

22:                                               ; preds = %18
  %23 = load ptr, ptr %4, align 8, !tbaa !40
  %24 = call ptr @Gia_ManDupUnnormalize(ptr noundef %23)
  store ptr %24, ptr %6, align 8, !tbaa !40
  %25 = load ptr, ptr %6, align 8, !tbaa !40
  %26 = icmp eq ptr %25, null
  br i1 %26, label %27, label %28

27:                                               ; preds = %22
  store ptr null, ptr %3, align 8
  store i32 1, ptr %7, align 4
  br label %88

28:                                               ; preds = %22
  %29 = load ptr, ptr %6, align 8, !tbaa !40
  %30 = load ptr, ptr %4, align 8, !tbaa !40
  call void @Gia_ManTransferTiming(ptr noundef %29, ptr noundef %30)
  %31 = load ptr, ptr %6, align 8, !tbaa !40
  store ptr %31, ptr %4, align 8, !tbaa !40
  %32 = load ptr, ptr %4, align 8, !tbaa !40
  %33 = load ptr, ptr %5, align 8, !tbaa !3
  %34 = call ptr @Gia_ManPerformMappingInt(ptr noundef %32, ptr noundef %33)
  store ptr %34, ptr %6, align 8, !tbaa !40
  %35 = load ptr, ptr %6, align 8, !tbaa !40
  %36 = load ptr, ptr %4, align 8, !tbaa !40
  %37 = icmp ne ptr %35, %36
  br i1 %37, label %38, label %42

38:                                               ; preds = %28
  %39 = load ptr, ptr %6, align 8, !tbaa !40
  %40 = load ptr, ptr %4, align 8, !tbaa !40
  call void @Gia_ManTransferTiming(ptr noundef %39, ptr noundef %40)
  %41 = load ptr, ptr %4, align 8, !tbaa !40
  call void @Gia_ManStop(ptr noundef %41)
  br label %42

42:                                               ; preds = %38, %28
  %43 = load ptr, ptr %6, align 8, !tbaa !40
  store ptr %43, ptr %4, align 8, !tbaa !40
  %44 = load ptr, ptr %5, align 8, !tbaa !3
  %45 = getelementptr inbounds nuw %struct.If_Par_t_, ptr %44, i32 0, i32 45
  %46 = load i32, ptr %45, align 4, !tbaa !334
  %47 = call ptr @Gia_ManDupNormalize(ptr noundef %43, i32 noundef %46)
  store ptr %47, ptr %6, align 8, !tbaa !40
  %48 = load ptr, ptr %6, align 8, !tbaa !40
  %49 = load ptr, ptr %4, align 8, !tbaa !40
  call void @Gia_ManTransferMapping(ptr noundef %48, ptr noundef %49)
  %50 = load ptr, ptr %6, align 8, !tbaa !40
  %51 = load ptr, ptr %4, align 8, !tbaa !40
  call void @Gia_ManTransferPacking(ptr noundef %50, ptr noundef %51)
  %52 = load ptr, ptr %6, align 8, !tbaa !40
  %53 = load ptr, ptr %4, align 8, !tbaa !40
  call void @Gia_ManTransferTiming(ptr noundef %52, ptr noundef %53)
  %54 = load ptr, ptr %4, align 8, !tbaa !40
  call void @Gia_ManStop(ptr noundef %54)
  br label %74

55:                                               ; preds = %18, %12, %2
  %56 = load ptr, ptr %4, align 8, !tbaa !40
  %57 = load ptr, ptr %5, align 8, !tbaa !3
  %58 = call ptr @Gia_ManPerformMappingInt(ptr noundef %56, ptr noundef %57)
  store ptr %58, ptr %6, align 8, !tbaa !40
  %59 = load ptr, ptr %6, align 8, !tbaa !40
  %60 = load ptr, ptr %4, align 8, !tbaa !40
  call void @Gia_ManTransferTiming(ptr noundef %59, ptr noundef %60)
  %61 = load ptr, ptr %5, align 8, !tbaa !3
  %62 = getelementptr inbounds nuw %struct.If_Par_t_, ptr %61, i32 0, i32 45
  %63 = load i32, ptr %62, align 4, !tbaa !334
  %64 = icmp ne i32 %63, 0
  br i1 %64, label %65, label %73

65:                                               ; preds = %55
  %66 = load ptr, ptr %6, align 8, !tbaa !40
  store ptr %66, ptr %4, align 8, !tbaa !40
  %67 = call ptr @Gia_ManDupHashMapping(ptr noundef %66)
  store ptr %67, ptr %6, align 8, !tbaa !40
  %68 = load ptr, ptr %6, align 8, !tbaa !40
  %69 = load ptr, ptr %4, align 8, !tbaa !40
  call void @Gia_ManTransferPacking(ptr noundef %68, ptr noundef %69)
  %70 = load ptr, ptr %6, align 8, !tbaa !40
  %71 = load ptr, ptr %4, align 8, !tbaa !40
  call void @Gia_ManTransferTiming(ptr noundef %70, ptr noundef %71)
  %72 = load ptr, ptr %4, align 8, !tbaa !40
  call void @Gia_ManStop(ptr noundef %72)
  br label %73

73:                                               ; preds = %65, %55
  br label %74

74:                                               ; preds = %73, %42
  %75 = load ptr, ptr %5, align 8, !tbaa !3
  %76 = getelementptr inbounds nuw %struct.If_Par_t_, ptr %75, i32 0, i32 68
  %77 = load float, ptr %76, align 4, !tbaa !335
  %78 = fptosi float %77 to i32
  %79 = load ptr, ptr %6, align 8, !tbaa !40
  %80 = getelementptr inbounds nuw %struct.Gia_Man_t_, ptr %79, i32 0, i32 106
  store i32 %78, ptr %80, align 4, !tbaa !336
  %81 = load ptr, ptr %5, align 8, !tbaa !3
  %82 = getelementptr inbounds nuw %struct.If_Par_t_, ptr %81, i32 0, i32 69
  %83 = load float, ptr %82, align 8, !tbaa !337
  %84 = fptosi float %83 to i32
  %85 = load ptr, ptr %6, align 8, !tbaa !40
  %86 = getelementptr inbounds nuw %struct.Gia_Man_t_, ptr %85, i32 0, i32 105
  store i32 %84, ptr %86, align 8, !tbaa !338
  %87 = load ptr, ptr %6, align 8, !tbaa !40
  store ptr %87, ptr %3, align 8
  store i32 1, ptr %7, align 4
  br label %88

88:                                               ; preds = %74, %27
  call void @llvm.lifetime.end.p0(i64 8, ptr %6) #14
  %89 = load ptr, ptr %3, align 8
  ret ptr %89
}