; Function Attrs: nounwind uwtable
define noundef ptr @Gia_ManPerformMapping(ptr noundef %0, ptr noundef %1) local_unnamed_addr #4 {
  %3 = getelementptr inbounds nuw i8, ptr %0, i64 736
  %4 = load ptr, ptr %3, align 8, !tbaa !60
  %.not = icmp eq ptr %4, null
  br i1 %.not, label %19, label %5

5:                                                ; preds = %2
  %6 = tail call i32 @Tim_ManBoxNum(ptr noundef nonnull %4) #27
  %.not45 = icmp eq i32 %6, 0
  br i1 %.not45, label %19, label %7

7:                                                ; preds = %5
  %8 = tail call i32 @Gia_ManIsNormalized(ptr noundef nonnull %0) #27
  %.not46 = icmp eq i32 %8, 0
  br i1 %.not46, label %19, label %9

9:                                                ; preds = %7
  %10 = tail call ptr @Gia_ManDupUnnormalize(ptr noundef nonnull %0) #27
  %11 = icmp eq ptr %10, null
  br i1 %11, label %34, label %12

12:                                               ; preds = %9
  tail call void @Gia_ManTransferTiming(ptr noundef nonnull %10, ptr noundef nonnull %0)
  %13 = tail call ptr @Gia_ManPerformMappingInt(ptr noundef nonnull %10, ptr noundef %1)
  %.not48 = icmp eq ptr %13, %10
  br i1 %.not48, label %15, label %14

14:                                               ; preds = %12
  tail call void @Gia_ManTransferTiming(ptr noundef %13, ptr noundef nonnull %10)
  tail call void @Gia_ManStop(ptr noundef nonnull %10) #27
  br label %15

15:                                               ; preds = %14, %12
  %16 = getelementptr inbounds nuw i8, ptr %1, i64 180
  %17 = load i32, ptr %16, align 4, !tbaa !319
  %18 = tail call ptr @Gia_ManDupNormalize(ptr noundef %13, i32 noundef %17) #27
  tail call void @Gia_ManTransferMapping(ptr noundef %18, ptr noundef %13)
  tail call void @Gia_ManTransferPacking(ptr noundef %18, ptr noundef %13)
  tail call void @Gia_ManTransferTiming(ptr noundef %18, ptr noundef %13)
  br label %.sink.split

19:                                               ; preds = %7, %5, %2
  %20 = tail call ptr @Gia_ManPerformMappingInt(ptr noundef nonnull %0, ptr noundef %1)
  tail call void @Gia_ManTransferTiming(ptr noundef %20, ptr noundef nonnull %0)
  %21 = getelementptr inbounds nuw i8, ptr %1, i64 180
  %22 = load i32, ptr %21, align 4, !tbaa !319
  %.not47 = icmp eq i32 %22, 0
  br i1 %.not47, label %25, label %23

23:                                               ; preds = %19
  %24 = tail call ptr @Gia_ManDupHashMapping(ptr noundef %20)
  tail call void @Gia_ManTransferPacking(ptr noundef %24, ptr noundef %20)
  tail call void @Gia_ManTransferTiming(ptr noundef %24, ptr noundef %20)
  br label %.sink.split

.sink.split:                                      ; preds = %15, %23
  %.sink = phi ptr [ %20, %23 ], [ %13, %15 ]
  %.0.ph = phi ptr [ %24, %23 ], [ %18, %15 ]
  tail call void @Gia_ManStop(ptr noundef %.sink) #27
  br label %25

25:                                               ; preds = %.sink.split, %19
  %.0 = phi ptr [ %20, %19 ], [ %.0.ph, %.sink.split ]
  %26 = getelementptr inbounds nuw i8, ptr %1, i64 276
  %27 = load float, ptr %26, align 4, !tbaa !320
  %28 = fptosi float %27 to i32
  %29 = getelementptr inbounds nuw i8, ptr %.0, i64 804
  store i32 %28, ptr %29, align 4, !tbaa !321
  %30 = getelementptr inbounds nuw i8, ptr %1, i64 280
  %31 = load float, ptr %30, align 8, !tbaa !322
  %32 = fptosi float %31 to i32
  %33 = getelementptr inbounds nuw i8, ptr %.0, i64 800
  store i32 %32, ptr %33, align 8, !tbaa !323
  br label %34

34:                                               ; preds = %9, %25
  %.041 = phi ptr [ %.0, %25 ], [ null, %9 ]
  ret ptr %.041
}